target datalayout = "e-m:e-p270:32:32-p271:32:32-p272:64:64-i64:64-i128:128-f80:128-n8:16:32:64-S128"
target triple = "x86_64-pc-linux-gnu"

%struct.BiquadsContext = type { ptr, i32, i32, i32, i32, i32, i32, i32, i32, double, double, double, double, ptr, %struct.AVChannelLayout, i32, i32, [3 x double], [3 x double], [3 x float], [3 x float], [3 x double], [3 x double], [3 x ptr], ptr, [2 x ptr], i32, i64, i32, ptr }
%struct.AVChannelLayout = type { i32, i32, %union.anon.1, ptr }
%union.anon.1 = type { i64 }

; Function Attrs: nounwind uwtable
define internal void @biquad_zdf_dbl(ptr noundef %0, ptr noundef %1, ptr noundef %2, i32 noundef %3, ptr noundef %4, ptr noundef %5, i32 noundef %6) #1 {
  %8 = alloca ptr, align 8
  %9 = alloca ptr, align 8
  %10 = alloca ptr, align 8
  %11 = alloca i32, align 4
  %12 = alloca ptr, align 8
  %13 = alloca ptr, align 8
  %14 = alloca i32, align 4
  %15 = alloca ptr, align 8
  %16 = alloca ptr, align 8
  %17 = alloca ptr, align 8
  %18 = alloca ptr, align 8
  %19 = alloca ptr, align 8
  %20 = alloca double, align 8
  %21 = alloca double, align 8
  %22 = alloca double, align 8
  %23 = alloca double, align 8
  %24 = alloca double, align 8
  %25 = alloca double, align 8
  %26 = alloca double, align 8
  %27 = alloca double, align 8
  %28 = alloca double, align 8
  %29 = alloca double, align 8
  %30 = alloca double, align 8
  %31 = alloca i32, align 4
  %32 = alloca double, align 8
  %33 = alloca double, align 8
  %34 = alloca double, align 8
  %35 = alloca double, align 8
  %36 = alloca double, align 8
  store ptr %0, ptr %8, align 8, !tbaa !22
  store ptr %1, ptr %9, align 8, !tbaa !36
  store ptr %2, ptr %10, align 8, !tbaa !36
  store i32 %3, ptr %11, align 4, !tbaa !31
  store ptr %4, ptr %12, align 8, !tbaa !36
  store ptr %5, ptr %13, align 8, !tbaa !82
  store i32 %6, ptr %14, align 4, !tbaa !31
  call void @llvm.lifetime.start.p0(i64 8, ptr %15) #11
  %37 = load ptr, ptr %9, align 8, !tbaa !36
  store ptr %37, ptr %15, align 8, !tbaa !91
  call void @llvm.lifetime.start.p0(i64 8, ptr %16) #11
  %38 = load ptr, ptr %10, align 8, !tbaa !36
  store ptr %38, ptr %16, align 8, !tbaa !91
  call void @llvm.lifetime.start.p0(i64 8, ptr %17) #11
  %39 = load ptr, ptr %12, align 8, !tbaa !36
  store ptr %39, ptr %17, align 8, !tbaa !91
  call void @llvm.lifetime.start.p0(i64 8, ptr %18) #11
  %40 = load ptr, ptr %8, align 8, !tbaa !22
  %41 = getelementptr inbounds nuw %struct.BiquadsContext, ptr %40, i32 0, i32 17
  %42 = getelementptr inbounds [3 x double], ptr %41, i64 0, i64 0
  store ptr %42, ptr %18, align 8, !tbaa !91
  call void @llvm.lifetime.start.p0(i64 8, ptr %19) #11
  %43 = load ptr, ptr %8, align 8, !tbaa !22
  %44 = getelementptr inbounds nuw %struct.BiquadsContext, ptr %43, i32 0, i32 18
  %45 = getelementptr inbounds [3 x double], ptr %44, i64 0, i64 0
  store ptr %45, ptr %19, align 8, !tbaa !91
  call void @llvm.lifetime.start.p0(i64 8, ptr %20) #11
  %46 = load ptr, ptr %19, align 8, !tbaa !91
  %47 = getelementptr inbounds double, ptr %46, i64 0
  %48 = load double, ptr %47, align 8, !tbaa !55
  store double %48, ptr %20, align 8, !tbaa !55
  call void @llvm.lifetime.start.p0(i64 8, ptr %21) #11
  %49 = load ptr, ptr %19, align 8, !tbaa !91
  %50 = getelementptr inbounds double, ptr %49, i64 1
  %51 = load double, ptr %50, align 8, !tbaa !55
  store double %51, ptr %21, align 8, !tbaa !55
  call void @llvm.lifetime.start.p0(i64 8, ptr %22) #11
  %52 = load ptr, ptr %19, align 8, !tbaa !91
  %53 = getelementptr inbounds double, ptr %52, i64 2
  %54 = load double, ptr %53, align 8, !tbaa !55
  store double %54, ptr %22, align 8, !tbaa !55
  call void @llvm.lifetime.start.p0(i64 8, ptr %23) #11
  %55 = load ptr, ptr %18, align 8, !tbaa !91
  %56 = getelementptr inbounds double, ptr %55, i64 0
  %57 = load double, ptr %56, align 8, !tbaa !55
  store double %57, ptr %23, align 8, !tbaa !55
  call void @llvm.lifetime.start.p0(i64 8, ptr %24) #11
  %58 = load ptr, ptr %18, align 8, !tbaa !91
  %59 = getelementptr inbounds double, ptr %58, i64 1
  %60 = load double, ptr %59, align 8, !tbaa !55
  store double %60, ptr %24, align 8, !tbaa !55
  call void @llvm.lifetime.start.p0(i64 8, ptr %25) #11
  %61 = load ptr, ptr %18, align 8, !tbaa !91
  %62 = getelementptr inbounds double, ptr %61, i64 2
  %63 = load double, ptr %62, align 8, !tbaa !55
  store double %63, ptr %25, align 8, !tbaa !55
  call void @llvm.lifetime.start.p0(i64 8, ptr %26) #11
  %64 = load ptr, ptr %17, align 8, !tbaa !91
  %65 = getelementptr inbounds double, ptr %64, i64 0
  %66 = load double, ptr %65, align 8, !tbaa !55
  store double %66, ptr %26, align 8, !tbaa !55
  call void @llvm.lifetime.start.p0(i64 8, ptr %27) #11
  %67 = load ptr, ptr %17, align 8, !tbaa !91
  %68 = getelementptr inbounds double, ptr %67, i64 1
  %69 = load double, ptr %68, align 8, !tbaa !55
  store double %69, ptr %27, align 8, !tbaa !55
  call void @llvm.lifetime.start.p0(i64 8, ptr %28) #11
  %70 = load ptr, ptr %8, align 8, !tbaa !22
  %71 = getelementptr inbounds nuw %struct.BiquadsContext, ptr %70, i32 0, i32 12
  %72 = load double, ptr %71, align 8, !tbaa !87
  store double %72, ptr %28, align 8, !tbaa !55
  call void @llvm.lifetime.start.p0(i64 8, ptr %29) #11
  %73 = load double, ptr %28, align 8, !tbaa !55
  %74 = fsub nsz double 1.000000e+00, %73
  store double %74, ptr %29, align 8, !tbaa !55
  call void @llvm.lifetime.start.p0(i64 8, ptr %30) #11
  call void @llvm.lifetime.start.p0(i64 4, ptr %31) #11
  store i32 0, ptr %31, align 4, !tbaa !31
  br label %75

75:                                               ; preds = %141, %7
  %76 = load i32, ptr %31, align 4, !tbaa !31
  %77 = load i32, ptr %11, align 4, !tbaa !31
  %78 = icmp slt i32 %76, %77
  br i1 %78, label %80, label %79

79:                                               ; preds = %75
  call void @llvm.lifetime.end.p0(i64 4, ptr %31) #11
  br label %144

80:                                               ; preds = %75
  call void @llvm.lifetime.start.p0(i64 8, ptr %32) #11
  %81 = load ptr, ptr %15, align 8, !tbaa !91
  %82 = load i32, ptr %31, align 4, !tbaa !31
  %83 = sext i32 %82 to i64
  %84 = getelementptr inbounds double, ptr %81, i64 %83
  %85 = load double, ptr %84, align 8, !tbaa !55
  store double %85, ptr %32, align 8, !tbaa !55
  call void @llvm.lifetime.start.p0(i64 8, ptr %33) #11
  %86 = load double, ptr %32, align 8, !tbaa !55
  store double %86, ptr %33, align 8, !tbaa !55
  call void @llvm.lifetime.start.p0(i64 8, ptr %34) #11
  %87 = load double, ptr %33, align 8, !tbaa !55
  %88 = load double, ptr %27, align 8, !tbaa !55
  %89 = fsub nsz double %87, %88
  store double %89, ptr %34, align 8, !tbaa !55
  call void @llvm.lifetime.start.p0(i64 8, ptr %35) #11
  %90 = load double, ptr %23, align 8, !tbaa !55
  %91 = load double, ptr %26, align 8, !tbaa !55
  %92 = load double, ptr %24, align 8, !tbaa !55
  %93 = load double, ptr %34, align 8, !tbaa !55
  %94 = fmul nsz double %92, %93
  %95 = call nsz double @llvm.fmuladd.f64(double %90, double %91, double %94)
  store double %95, ptr %35, align 8, !tbaa !55
  call void @llvm.lifetime.start.p0(i64 8, ptr %36) #11
  %96 = load double, ptr %27, align 8, !tbaa !55
  %97 = load double, ptr %24, align 8, !tbaa !55
  %98 = load double, ptr %26, align 8, !tbaa !55
  %99 = call nsz double @llvm.fmuladd.f64(double %97, double %98, double %96)
  %100 = load double, ptr %25, align 8, !tbaa !55
  %101 = load double, ptr %34, align 8, !tbaa !55
  %102 = call nsz double @llvm.fmuladd.f64(double %100, double %101, double %99)
  store double %102, ptr %36, align 8, !tbaa !55
  %103 = load double, ptr %35, align 8, !tbaa !55
  %104 = load double, ptr %26, align 8, !tbaa !55
  %105 = fneg nsz double %104
  %106 = call nsz double @llvm.fmuladd.f64(double 2.000000e+00, double %103, double %105)
  store double %106, ptr %26, align 8, !tbaa !55
  %107 = load double, ptr %36, align 8, !tbaa !55
  %108 = load double, ptr %27, align 8, !tbaa !55
  %109 = fneg nsz double %108
  %110 = call nsz double @llvm.fmuladd.f64(double 2.000000e+00, double %107, double %109)
  store double %110, ptr %27, align 8, !tbaa !55
  %111 = load double, ptr %20, align 8, !tbaa !55
  %112 = load double, ptr %33, align 8, !tbaa !55
  %113 = load double, ptr %21, align 8, !tbaa !55
  %114 = load double, ptr %35, align 8, !tbaa !55
  %115 = fmul nsz double %113, %114
  %116 = call nsz double @llvm.fmuladd.f64(double %111, double %112, double %115)
  %117 = load double, ptr %22, align 8, !tbaa !55
  %118 = load double, ptr %36, align 8, !tbaa !55
  %119 = call nsz double @llvm.fmuladd.f64(double %117, double %118, double %116)
  store double %119, ptr %30, align 8, !tbaa !55
  %120 = load double, ptr %30, align 8, !tbaa !55
  %121 = load double, ptr %28, align 8, !tbaa !55
  %122 = load double, ptr %32, align 8, !tbaa !55
  %123 = load double, ptr %29, align 8, !tbaa !55
  %124 = fmul nsz double %122, %123
  %125 = call nsz double @llvm.fmuladd.f64(double %120, double %121, double %124)
  store double %125, ptr %30, align 8, !tbaa !55
  %126 = load i32, ptr %14, align 4, !tbaa !31
  %127 = icmp ne i32 %126, 0
  br i1 %127, label %128, label %134

128:                                              ; preds = %80
  %129 = load double, ptr %32, align 8, !tbaa !55
  %130 = load ptr, ptr %16, align 8, !tbaa !91
  %131 = load i32, ptr %31, align 4, !tbaa !31
  %132 = sext i32 %131 to i64
  %133 = getelementptr inbounds double, ptr %130, i64 %132
  store double %129, ptr %133, align 8, !tbaa !55
  br label %140

134:                                              ; preds = %80
  %135 = load double, ptr %30, align 8, !tbaa !55
  %136 = load ptr, ptr %16, align 8, !tbaa !91
  %137 = load i32, ptr %31, align 4, !tbaa !31
  %138 = sext i32 %137 to i64
  %139 = getelementptr inbounds double, ptr %136, i64 %138
  store double %135, ptr %139, align 8, !tbaa !55
  br label %140

140:                                              ; preds = %134, %128
  call void @llvm.lifetime.end.p0(i64 8, ptr %36) #11
  call void @llvm.lifetime.end.p0(i64 8, ptr %35) #11
  call void @llvm.lifetime.end.p0(i64 8, ptr %34) #11
  call void @llvm.lifetime.end.p0(i64 8, ptr %33) #11
  call void @llvm.lifetime.end.p0(i64 8, ptr %32) #11
  br label %141

141:                                              ; preds = %140
  %142 = load i32, ptr %31, align 4, !tbaa !31
  %143 = add nsw i32 %142, 1
  store i32 %143, ptr %31, align 4, !tbaa !31
  br label %75, !llvm.loop !118

144:                                              ; preds = %79
  %145 = load double, ptr %26, align 8, !tbaa !55
  %146 = load ptr, ptr %17, align 8, !tbaa !91
  %147 = getelementptr inbounds double, ptr %146, i64 0
  store double %145, ptr %147, align 8, !tbaa !55
  %148 = load double, ptr %27, align 8, !tbaa !55
  %149 = load ptr, ptr %17, align 8, !tbaa !91
  %150 = getelementptr inbounds double, ptr %149, i64 1
  store double %148, ptr %150, align 8, !tbaa !55
  call void @llvm.lifetime.end.p0(i64 8, ptr %30) #11
  call void @llvm.lifetime.end.p0(i64 8, ptr %29) #11
  call void @llvm.lifetime.end.p0(i64 8, ptr %28) #11
  call void @llvm.lifetime.end.p0(i64 8, ptr %27) #11
  call void @llvm.lifetime.end.p0(i64 8, ptr %26) #11
  call void @llvm.lifetime.end.p0(i64 8, ptr %25) #11
  call void @llvm.lifetime.end.p0(i64 8, ptr %24) #11
  call void @llvm.lifetime.end.p0(i64 8, ptr %23) #11
  call void @llvm.lifetime.end.p0(i64 8, ptr %22) #11
  call void @llvm.lifetime.end.p0(i64 8, ptr %21) #11
  call void @llvm.lifetime.end.p0(i64 8, ptr %20) #11
  call void @llvm.lifetime.end.p0(i64 8, ptr %19) #11
  call void @llvm.lifetime.end.p0(i64 8, ptr %18) #11
  call void @llvm.lifetime.end.p0(i64 8, ptr %17) #11
  call void @llvm.lifetime.end.p0(i64 8, ptr %16) #11
  call void @llvm.lifetime.end.p0(i64 8, ptr %15) #11
  ret void
}