; Function Attrs: nofree norecurse nosync nounwind memory(argmem: readwrite) uwtable
define internal void @biquad_zdf_dbl(ptr noundef readonly captures(none) %0, ptr noundef readonly captures(none) %1, ptr noundef writeonly captures(none) %2, i32 noundef %3, ptr noundef captures(none) %4, ptr readnone captures(none) %5, i32 noundef %6) #7 {
  %8 = getelementptr inbounds nuw i8, ptr %0, i64 112
  %9 = getelementptr inbounds nuw i8, ptr %0, i64 136
  %10 = load double, ptr %9, align 8, !tbaa !53
  %11 = getelementptr inbounds nuw i8, ptr %0, i64 144
  %12 = load double, ptr %11, align 8, !tbaa !53
  %13 = getelementptr inbounds nuw i8, ptr %0, i64 152
  %14 = load double, ptr %13, align 8, !tbaa !53
  %15 = load double, ptr %8, align 8, !tbaa !53
  %16 = getelementptr inbounds nuw i8, ptr %0, i64 120
  %17 = load double, ptr %16, align 8, !tbaa !53
  %18 = getelementptr inbounds nuw i8, ptr %0, i64 128
  %19 = load double, ptr %18, align 8, !tbaa !53
  %20 = load double, ptr %4, align 8, !tbaa !53
  %21 = getelementptr inbounds nuw i8, ptr %4, i64 8
  %22 = load double, ptr %21, align 8, !tbaa !53
  %23 = getelementptr inbounds nuw i8, ptr %0, i64 64
  %24 = load double, ptr %23, align 8, !tbaa !75
  %25 = fsub nsz double 1.000000e+00, %24
  %26 = icmp sgt i32 %3, 0
  br i1 %26, label %.lr.ph, label %._crit_edge

.lr.ph:                                           ; preds = %7
  %.not = icmp eq i32 %6, 0
  %wide.trip.count71 = zext nneg i32 %3 to i64
  br i1 %.not, label %.lr.ph.split.us, label %.lr.ph.split

.lr.ph.split.us:                                  ; preds = %.lr.ph, %.lr.ph.split.us
  %indvars.iv68 = phi i64 [ %indvars.iv.next69, %.lr.ph.split.us ], [ 0, %.lr.ph ]
  %.060.us = phi double [ %35, %.lr.ph.split.us ], [ %20, %.lr.ph ]
  %.05659.us = phi double [ %37, %.lr.ph.split.us ], [ %22, %.lr.ph ]
  %27 = getelementptr inbounds nuw double, ptr %1, i64 %indvars.iv68
  %28 = load double, ptr %27, align 8, !tbaa !53
  %29 = fsub nsz double %28, %.05659.us
  %30 = fmul nsz double %17, %29
  %31 = tail call nsz double @llvm.fmuladd.f64(double %15, double %.060.us, double %30)
  %32 = tail call nsz double @llvm.fmuladd.f64(double %17, double %.060.us, double %.05659.us)
  %33 = tail call nsz double @llvm.fmuladd.f64(double %19, double %29, double %32)
  %34 = fneg nsz double %.060.us
  %35 = tail call nsz double @llvm.fmuladd.f64(double %31, double 2.000000e+00, double %34)
  %36 = fneg nsz double %.05659.us
  %37 = tail call nsz double @llvm.fmuladd.f64(double %33, double 2.000000e+00, double %36)
  %38 = fmul nsz double %12, %31
  %39 = tail call nsz double @llvm.fmuladd.f64(double %10, double %28, double %38)
  %40 = tail call nsz double @llvm.fmuladd.f64(double %14, double %33, double %39)
  %41 = fmul nsz double %25, %28
  %42 = tail call nsz double @llvm.fmuladd.f64(double %40, double %24, double %41)
  %43 = getelementptr inbounds nuw double, ptr %2, i64 %indvars.iv68
  store double %42, ptr %43, align 8, !tbaa !53
  %indvars.iv.next69 = add nuw nsw i64 %indvars.iv68, 1
  %exitcond72.not = icmp eq i64 %indvars.iv.next69, %wide.trip.count71
  br i1 %exitcond72.not, label %._crit_edge, label %.lr.ph.split.us, !llvm.loop !105

._crit_edge:                                      ; preds = %.lr.ph.split, %.lr.ph.split.us, %7
  %.056.lcssa = phi double [ %22, %7 ], [ %37, %.lr.ph.split.us ], [ %54, %.lr.ph.split ]
  %.0.lcssa = phi double [ %20, %7 ], [ %35, %.lr.ph.split.us ], [ %52, %.lr.ph.split ]
  store double %.0.lcssa, ptr %4, align 8, !tbaa !53
  store double %.056.lcssa, ptr %21, align 8, !tbaa !53
  ret void

.lr.ph.split:                                     ; preds = %.lr.ph, %.lr.ph.split
  %indvars.iv = phi i64 [ %indvars.iv.next, %.lr.ph.split ], [ 0, %.lr.ph ]
  %.060 = phi double [ %52, %.lr.ph.split ], [ %20, %.lr.ph ]
  %.05659 = phi double [ %54, %.lr.ph.split ], [ %22, %.lr.ph ]
  %44 = getelementptr inbounds nuw double, ptr %1, i64 %indvars.iv
  %45 = load double, ptr %44, align 8, !tbaa !53
  %46 = fsub nsz double %45, %.05659
  %47 = fmul nsz double %17, %46
  %48 = tail call nsz double @llvm.fmuladd.f64(double %15, double %.060, double %47)
  %49 = tail call nsz double @llvm.fmuladd.f64(double %17, double %.060, double %.05659)
  %50 = tail call nsz double @llvm.fmuladd.f64(double %19, double %46, double %49)
  %51 = fneg nsz double %.060
  %52 = tail call nsz double @llvm.fmuladd.f64(double %48, double 2.000000e+00, double %51)
  %53 = fneg nsz double %.05659
  %54 = tail call nsz double @llvm.fmuladd.f64(double %50, double 2.000000e+00, double %53)
  %55 = getelementptr inbounds nuw double, ptr %2, i64 %indvars.iv
  store double %45, ptr %55, align 8, !tbaa !53
  %indvars.iv.next = add nuw nsw i64 %indvars.iv, 1
  %exitcond.not = icmp eq i64 %indvars.iv.next, %wide.trip.count71
  br i1 %exitcond.not, label %._crit_edge, label %.lr.ph.split, !llvm.loop !105
}